#include <math.h>
#include <stdio.h>
#include <stdlib.h>
#include <string.h>

int main()
{
	int i,j,n,e;
	char q[11];
	struct point
	{
		char name[11];
		int age;
	}
	p[100];
	scanf("%d",&n);
	for(i=0;i<n;i++)
	{
		scanf("%s%d",&p[i].name,&p[i].age);
	}
	for(j=0;j<n;j++)
	{
		for(i=0;i<n-1;i++)
		{
			if((p[i].age>60||p[i].age==60)&&(p[i+1].age>60||p[i+1].age==60)&&p[i].age<p[i+1].age||p[i].age<60&&(p[i+1].age>60||p[i+1].age==60))
			{
				e=p[i].age;
				p[i].age=p[i+1].age;
				p[i+1].age=e;

				strcpy(q,p[i].name);
				strcpy(p[i].name,p[i+1].name);
				strcpy(p[i+1].name,q);
			}
		}
	}
	for(i=0;i<n;i++)
	{
		printf("%s",p[i].name);
		if(i!=n-1)
		{
			printf("\n");
		}
	}
	return 0;
}
