; ModuleID = '9/912.c'
source_filename = "9/912.c"
target datalayout = "e-m:e-p270:32:32-p271:32:32-p272:64:64-i64:64-f80:128-n8:16:32:64-S128"
target triple = "x86_64-pc-linux-gnu"

%struct.point = type { [11 x i8], i32 }

@.str = private unnamed_addr constant [3 x i8] c"%d\00", align 1
@.str.1 = private unnamed_addr constant [5 x i8] c"%s%d\00", align 1
@.str.2 = private unnamed_addr constant [3 x i8] c"%s\00", align 1
@.str.3 = private unnamed_addr constant [2 x i8] c"\0A\00", align 1

; Function Attrs: noinline nounwind uwtable
define dso_local i32 @main() #0 {
  %1 = alloca i32, align 4
  %2 = alloca i32, align 4
  %3 = alloca i32, align 4
  %4 = alloca i32, align 4
  %5 = alloca i32, align 4
  %6 = alloca [11 x i8], align 1
  %7 = alloca [100 x %struct.point], align 16
  store i32 0, i32* %1, align 4
  %8 = call i32 (i8*, ...) @__isoc99_scanf(i8* getelementptr inbounds ([3 x i8], [3 x i8]* @.str, i64 0, i64 0), i32* %4)
  store i32 0, i32* %2, align 4
  br label %9

9:                                                ; preds = %23, %0
  %10 = load i32, i32* %2, align 4
  %11 = load i32, i32* %4, align 4
  %12 = icmp slt i32 %10, %11
  br i1 %12, label %13, label %26

13:                                               ; preds = %9
  %14 = load i32, i32* %2, align 4
  %15 = sext i32 %14 to i64
  %16 = getelementptr inbounds [100 x %struct.point], [100 x %struct.point]* %7, i64 0, i64 %15
  %17 = getelementptr inbounds %struct.point, %struct.point* %16, i32 0, i32 0
  %18 = load i32, i32* %2, align 4
  %19 = sext i32 %18 to i64
  %20 = getelementptr inbounds [100 x %struct.point], [100 x %struct.point]* %7, i64 0, i64 %19
  %21 = getelementptr inbounds %struct.point, %struct.point* %20, i32 0, i32 1
  %22 = call i32 (i8*, ...) @__isoc99_scanf(i8* getelementptr inbounds ([5 x i8], [5 x i8]* @.str.1, i64 0, i64 0), [11 x i8]* %17, i32* %21)
  br label %23

23:                                               ; preds = %13
  %24 = load i32, i32* %2, align 4
  %25 = add nsw i32 %24, 1
  store i32 %25, i32* %2, align 4
  br label %9

26:                                               ; preds = %9
  store i32 0, i32* %3, align 4
  br label %27

27:                                               ; preds = %157, %26
  %28 = load i32, i32* %3, align 4
  %29 = load i32, i32* %4, align 4
  %30 = icmp slt i32 %28, %29
  br i1 %30, label %31, label %160

31:                                               ; preds = %27
  store i32 0, i32* %2, align 4
  br label %32

32:                                               ; preds = %153, %31
  %33 = load i32, i32* %2, align 4
  %34 = load i32, i32* %4, align 4
  %35 = sub nsw i32 %34, 1
  %36 = icmp slt i32 %33, %35
  br i1 %36, label %37, label %156

37:                                               ; preds = %32
  %38 = load i32, i32* %2, align 4
  %39 = sext i32 %38 to i64
  %40 = getelementptr inbounds [100 x %struct.point], [100 x %struct.point]* %7, i64 0, i64 %39
  %41 = getelementptr inbounds %struct.point, %struct.point* %40, i32 0, i32 1
  %42 = load i32, i32* %41, align 4
  %43 = icmp sgt i32 %42, 60
  br i1 %43, label %51, label %44

44:                                               ; preds = %37
  %45 = load i32, i32* %2, align 4
  %46 = sext i32 %45 to i64
  %47 = getelementptr inbounds [100 x %struct.point], [100 x %struct.point]* %7, i64 0, i64 %46
  %48 = getelementptr inbounds %struct.point, %struct.point* %47, i32 0, i32 1
  %49 = load i32, i32* %48, align 4
  %50 = icmp eq i32 %49, 60
  br i1 %50, label %51, label %80

51:                                               ; preds = %44, %37
  %52 = load i32, i32* %2, align 4
  %53 = add nsw i32 %52, 1
  %54 = sext i32 %53 to i64
  %55 = getelementptr inbounds [100 x %struct.point], [100 x %struct.point]* %7, i64 0, i64 %54
  %56 = getelementptr inbounds %struct.point, %struct.point* %55, i32 0, i32 1
  %57 = load i32, i32* %56, align 4
  %58 = icmp sgt i32 %57, 60
  br i1 %58, label %67, label %59

59:                                               ; preds = %51
  %60 = load i32, i32* %2, align 4
  %61 = add nsw i32 %60, 1
  %62 = sext i32 %61 to i64
  %63 = getelementptr inbounds [100 x %struct.point], [100 x %struct.point]* %7, i64 0, i64 %62
  %64 = getelementptr inbounds %struct.point, %struct.point* %63, i32 0, i32 1
  %65 = load i32, i32* %64, align 4
  %66 = icmp eq i32 %65, 60
  br i1 %66, label %67, label %80

67:                                               ; preds = %59, %51
  %68 = load i32, i32* %2, align 4
  %69 = sext i32 %68 to i64
  %70 = getelementptr inbounds [100 x %struct.point], [100 x %struct.point]* %7, i64 0, i64 %69
  %71 = getelementptr inbounds %struct.point, %struct.point* %70, i32 0, i32 1
  %72 = load i32, i32* %71, align 4
  %73 = load i32, i32* %2, align 4
  %74 = add nsw i32 %73, 1
  %75 = sext i32 %74 to i64
  %76 = getelementptr inbounds [100 x %struct.point], [100 x %struct.point]* %7, i64 0, i64 %75
  %77 = getelementptr inbounds %struct.point, %struct.point* %76, i32 0, i32 1
  %78 = load i32, i32* %77, align 4
  %79 = icmp slt i32 %72, %78
  br i1 %79, label %103, label %80

80:                                               ; preds = %67, %59, %44
  %81 = load i32, i32* %2, align 4
  %82 = sext i32 %81 to i64
  %83 = getelementptr inbounds [100 x %struct.point], [100 x %struct.point]* %7, i64 0, i64 %82
  %84 = getelementptr inbounds %struct.point, %struct.point* %83, i32 0, i32 1
  %85 = load i32, i32* %84, align 4
  %86 = icmp slt i32 %85, 60
  br i1 %86, label %87, label %152

87:                                               ; preds = %80
  %88 = load i32, i32* %2, align 4
  %89 = add nsw i32 %88, 1
  %90 = sext i32 %89 to i64
  %91 = getelementptr inbounds [100 x %struct.point], [100 x %struct.point]* %7, i64 0, i64 %90
  %92 = getelementptr inbounds %struct.point, %struct.point* %91, i32 0, i32 1
  %93 = load i32, i32* %92, align 4
  %94 = icmp sgt i32 %93, 60
  br i1 %94, label %103, label %95

95:                                               ; preds = %87
  %96 = load i32, i32* %2, align 4
  %97 = add nsw i32 %96, 1
  %98 = sext i32 %97 to i64
  %99 = getelementptr inbounds [100 x %struct.point], [100 x %struct.point]* %7, i64 0, i64 %98
  %100 = getelementptr inbounds %struct.point, %struct.point* %99, i32 0, i32 1
  %101 = load i32, i32* %100, align 4
  %102 = icmp eq i32 %101, 60
  br i1 %102, label %103, label %152

103:                                              ; preds = %95, %87, %67
  %104 = load i32, i32* %2, align 4
  %105 = sext i32 %104 to i64
  %106 = getelementptr inbounds [100 x %struct.point], [100 x %struct.point]* %7, i64 0, i64 %105
  %107 = getelementptr inbounds %struct.point, %struct.point* %106, i32 0, i32 1
  %108 = load i32, i32* %107, align 4
  store i32 %108, i32* %5, align 4
  %109 = load i32, i32* %2, align 4
  %110 = add nsw i32 %109, 1
  %111 = sext i32 %110 to i64
  %112 = getelementptr inbounds [100 x %struct.point], [100 x %struct.point]* %7, i64 0, i64 %111
  %113 = getelementptr inbounds %struct.point, %struct.point* %112, i32 0, i32 1
  %114 = load i32, i32* %113, align 4
  %115 = load i32, i32* %2, align 4
  %116 = sext i32 %115 to i64
  %117 = getelementptr inbounds [100 x %struct.point], [100 x %struct.point]* %7, i64 0, i64 %116
  %118 = getelementptr inbounds %struct.point, %struct.point* %117, i32 0, i32 1
  store i32 %114, i32* %118, align 4
  %119 = load i32, i32* %5, align 4
  %120 = load i32, i32* %2, align 4
  %121 = add nsw i32 %120, 1
  %122 = sext i32 %121 to i64
  %123 = getelementptr inbounds [100 x %struct.point], [100 x %struct.point]* %7, i64 0, i64 %122
  %124 = getelementptr inbounds %struct.point, %struct.point* %123, i32 0, i32 1
  store i32 %119, i32* %124, align 4
  %125 = getelementptr inbounds [11 x i8], [11 x i8]* %6, i64 0, i64 0
  %126 = load i32, i32* %2, align 4
  %127 = sext i32 %126 to i64
  %128 = getelementptr inbounds [100 x %struct.point], [100 x %struct.point]* %7, i64 0, i64 %127
  %129 = getelementptr inbounds %struct.point, %struct.point* %128, i32 0, i32 0
  %130 = getelementptr inbounds [11 x i8], [11 x i8]* %129, i64 0, i64 0
  %131 = call i8* @strcpy(i8* %125, i8* %130) #3
  %132 = load i32, i32* %2, align 4
  %133 = sext i32 %132 to i64
  %134 = getelementptr inbounds [100 x %struct.point], [100 x %struct.point]* %7, i64 0, i64 %133
  %135 = getelementptr inbounds %struct.point, %struct.point* %134, i32 0, i32 0
  %136 = getelementptr inbounds [11 x i8], [11 x i8]* %135, i64 0, i64 0
  %137 = load i32, i32* %2, align 4
  %138 = add nsw i32 %137, 1
  %139 = sext i32 %138 to i64
  %140 = getelementptr inbounds [100 x %struct.point], [100 x %struct.point]* %7, i64 0, i64 %139
  %141 = getelementptr inbounds %struct.point, %struct.point* %140, i32 0, i32 0
  %142 = getelementptr inbounds [11 x i8], [11 x i8]* %141, i64 0, i64 0
  %143 = call i8* @strcpy(i8* %136, i8* %142) #3
  %144 = load i32, i32* %2, align 4
  %145 = add nsw i32 %144, 1
  %146 = sext i32 %145 to i64
  %147 = getelementptr inbounds [100 x %struct.point], [100 x %struct.point]* %7, i64 0, i64 %146
  %148 = getelementptr inbounds %struct.point, %struct.point* %147, i32 0, i32 0
  %149 = getelementptr inbounds [11 x i8], [11 x i8]* %148, i64 0, i64 0
  %150 = getelementptr inbounds [11 x i8], [11 x i8]* %6, i64 0, i64 0
  %151 = call i8* @strcpy(i8* %149, i8* %150) #3
  br label %152

152:                                              ; preds = %103, %95, %80
  br label %153

153:                                              ; preds = %152
  %154 = load i32, i32* %2, align 4
  %155 = add nsw i32 %154, 1
  store i32 %155, i32* %2, align 4
  br label %32

156:                                              ; preds = %32
  br label %157

157:                                              ; preds = %156
  %158 = load i32, i32* %3, align 4
  %159 = add nsw i32 %158, 1
  store i32 %159, i32* %3, align 4
  br label %27

160:                                              ; preds = %27
  store i32 0, i32* %2, align 4
  br label %161

161:                                              ; preds = %179, %160
  %162 = load i32, i32* %2, align 4
  %163 = load i32, i32* %4, align 4
  %164 = icmp slt i32 %162, %163
  br i1 %164, label %165, label %182

165:                                              ; preds = %161
  %166 = load i32, i32* %2, align 4
  %167 = sext i32 %166 to i64
  %168 = getelementptr inbounds [100 x %struct.point], [100 x %struct.point]* %7, i64 0, i64 %167
  %169 = getelementptr inbounds %struct.point, %struct.point* %168, i32 0, i32 0
  %170 = getelementptr inbounds [11 x i8], [11 x i8]* %169, i64 0, i64 0
  %171 = call i32 (i8*, ...) @printf(i8* getelementptr inbounds ([3 x i8], [3 x i8]* @.str.2, i64 0, i64 0), i8* %170)
  %172 = load i32, i32* %2, align 4
  %173 = load i32, i32* %4, align 4
  %174 = sub nsw i32 %173, 1
  %175 = icmp ne i32 %172, %174
  br i1 %175, label %176, label %178

176:                                              ; preds = %165
  %177 = call i32 (i8*, ...) @printf(i8* getelementptr inbounds ([2 x i8], [2 x i8]* @.str.3, i64 0, i64 0))
  br label %178

178:                                              ; preds = %176, %165
  br label %179

179:                                              ; preds = %178
  %180 = load i32, i32* %2, align 4
  %181 = add nsw i32 %180, 1
  store i32 %181, i32* %2, align 4
  br label %161

182:                                              ; preds = %161
  ret i32 0
}

declare dso_local i32 @__isoc99_scanf(i8*, ...) #1

; Function Attrs: nounwind
declare dso_local i8* @strcpy(i8*, i8*) #2

declare dso_local i32 @printf(i8*, ...) #1


!llvm.module.flags = !{!0}
!llvm.ident = !{!1}

!0 = !{i32 1, !"wchar_size", i32 4}
!1 = !{!"clang version 10.0.0-4ubuntu1 "}
